target datalayout = "e-m:e-p270:32:32-p271:32:32-p272:64:64-i64:64-i128:128-f80:128-n8:16:32:64-S128"
target triple = "x86_64-pc-linux-gnu"

%"class.std::vector" = type { %"struct.std::_Vector_base" }
%"struct.std::_Vector_base" = type { %"struct.std::_Vector_base<int, std::allocator<int>>::_Vector_impl" }
%"struct.std::_Vector_base<int, std::allocator<int>>::_Vector_impl" = type { %"struct.std::_Vector_base<int, std::allocator<int>>::_Vector_impl_data" }
%"struct.std::_Vector_base<int, std::allocator<int>>::_Vector_impl_data" = type { ptr, ptr, ptr }
%"struct.Yosys::DriverMap::DriveBitId" = type { i32 }
%"class.Yosys::hashlib::pool<Yosys::DriverMap::DriveBitId>::iterator" = type <{ ptr, i32, [4 x i8] }>
%"struct.Yosys::DriverMap::DriveBitGraph" = type { %"class.Yosys::hashlib::dict", %"class.Yosys::hashlib::dict", %"class.Yosys::hashlib::dict.45" }
%"class.Yosys::hashlib::dict" = type <{ %"class.std::vector", %"class.std::vector.40", [8 x i8] }>
%"class.std::vector.40" = type { %"struct.std::_Vector_base.41" }
%"struct.std::_Vector_base.41" = type { %"struct.std::_Vector_base<Yosys::hashlib::dict<Yosys::DriverMap::DriveBitId, Yosys::DriverMap::DriveBitId>::entry_t, std::allocator<Yosys::hashlib::dict<Yosys::DriverMap::DriveBitId, Yosys::DriverMap::DriveBitId>::entry_t>>::_Vector_impl" }
%"struct.std::_Vector_base<Yosys::hashlib::dict<Yosys::DriverMap::DriveBitId, Yosys::DriverMap::DriveBitId>::entry_t, std::allocator<Yosys::hashlib::dict<Yosys::DriverMap::DriveBitId, Yosys::DriverMap::DriveBitId>::entry_t>>::_Vector_impl" = type { %"struct.std::_Vector_base<Yosys::hashlib::dict<Yosys::DriverMap::DriveBitId, Yosys::DriverMap::DriveBitId>::entry_t, std::allocator<Yosys::hashlib::dict<Yosys::DriverMap::DriveBitId, Yosys::DriverMap::DriveBitId>::entry_t>>::_Vector_impl_data" }
%"struct.std::_Vector_base<Yosys::hashlib::dict<Yosys::DriverMap::DriveBitId, Yosys::DriverMap::DriveBitId>::entry_t, std::allocator<Yosys::hashlib::dict<Yosys::DriverMap::DriveBitId, Yosys::DriverMap::DriveBitId>::entry_t>>::_Vector_impl_data" = type { ptr, ptr, ptr }
%"class.Yosys::hashlib::dict.45" = type <{ %"class.std::vector", %"class.std::vector.46", [8 x i8] }>
%"class.std::vector.46" = type { %"struct.std::_Vector_base.47" }
%"struct.std::_Vector_base.47" = type { %"struct.std::_Vector_base<Yosys::hashlib::dict<Yosys::DriverMap::DriveBitId, Yosys::hashlib::pool<Yosys::DriverMap::DriveBitId>>::entry_t, std::allocator<Yosys::hashlib::dict<Yosys::DriverMap::DriveBitId, Yosys::hashlib::pool<Yosys::DriverMap::DriveBitId>>::entry_t>>::_Vector_impl" }
%"struct.std::_Vector_base<Yosys::hashlib::dict<Yosys::DriverMap::DriveBitId, Yosys::hashlib::pool<Yosys::DriverMap::DriveBitId>>::entry_t, std::allocator<Yosys::hashlib::dict<Yosys::DriverMap::DriveBitId, Yosys::hashlib::pool<Yosys::DriverMap::DriveBitId>>::entry_t>>::_Vector_impl" = type { %"struct.std::_Vector_base<Yosys::hashlib::dict<Yosys::DriverMap::DriveBitId, Yosys::hashlib::pool<Yosys::DriverMap::DriveBitId>>::entry_t, std::allocator<Yosys::hashlib::dict<Yosys::DriverMap::DriveBitId, Yosys::hashlib::pool<Yosys::DriverMap::DriveBitId>>::entry_t>>::_Vector_impl_data" }
%"struct.std::_Vector_base<Yosys::hashlib::dict<Yosys::DriverMap::DriveBitId, Yosys::hashlib::pool<Yosys::DriverMap::DriveBitId>>::entry_t, std::allocator<Yosys::hashlib::dict<Yosys::DriverMap::DriveBitId, Yosys::hashlib::pool<Yosys::DriverMap::DriveBitId>>::entry_t>>::_Vector_impl_data" = type { ptr, ptr, ptr }
%"class.Yosys::hashlib::pool.54" = type <{ %"class.std::vector", %"class.std::vector.55", [8 x i8] }>
%"class.std::vector.55" = type { %"struct.std::_Vector_base.56" }
%"struct.std::_Vector_base.56" = type { %"struct.std::_Vector_base<Yosys::hashlib::pool<Yosys::DriverMap::DriveBitId>::entry_t, std::allocator<Yosys::hashlib::pool<Yosys::DriverMap::DriveBitId>::entry_t>>::_Vector_impl" }
%"struct.std::_Vector_base<Yosys::hashlib::pool<Yosys::DriverMap::DriveBitId>::entry_t, std::allocator<Yosys::hashlib::pool<Yosys::DriverMap::DriveBitId>::entry_t>>::_Vector_impl" = type { %"struct.std::_Vector_base<Yosys::hashlib::pool<Yosys::DriverMap::DriveBitId>::entry_t, std::allocator<Yosys::hashlib::pool<Yosys::DriverMap::DriveBitId>::entry_t>>::_Vector_impl_data" }
%"struct.std::_Vector_base<Yosys::hashlib::pool<Yosys::DriverMap::DriveBitId>::entry_t, std::allocator<Yosys::hashlib::pool<Yosys::DriverMap::DriveBitId>::entry_t>>::_Vector_impl_data" = type { ptr, ptr, ptr }
%"struct.Yosys::hashlib::pool<Yosys::DriverMap::DriveBitId>::entry_t" = type { %"struct.Yosys::DriverMap::DriveBitId", i32 }

; Function Attrs: mustprogress nounwind uwtable
define linkonce_odr noundef nonnull align 4 dereferenceable(8) ptr @_ZNSt6vectorIN5Yosys7hashlib4poolINS0_9DriverMap10DriveBitIdENS1_8hash_opsIS4_EEE7entry_tESaIS8_EEixEm(ptr noundef nonnull align 8 dereferenceable(24) %0, i64 noundef %1) #7 comdat align 2 {
  %3 = alloca ptr, align 8
  %4 = alloca i64, align 8
  store ptr %0, ptr %3, align 8, !tbaa !838
  store i64 %1, ptr %4, align 8, !tbaa !121
  %5 = load ptr, ptr %3, align 8
  %6 = getelementptr inbounds nuw %"struct.std::_Vector_base.56", ptr %5, i32 0, i32 0
  %7 = getelementptr inbounds nuw %"struct.std::_Vector_base<Yosys::hashlib::pool<Yosys::DriverMap::DriveBitId>::entry_t, std::allocator<Yosys::hashlib::pool<Yosys::DriverMap::DriveBitId>::entry_t>>::_Vector_impl_data", ptr %6, i32 0, i32 0
  %8 = load ptr, ptr %7, align 8, !tbaa !840
  %9 = load i64, ptr %4, align 8, !tbaa !121
  %10 = getelementptr inbounds nuw %"struct.Yosys::hashlib::pool<Yosys::DriverMap::DriveBitId>::entry_t", ptr %8, i64 %9
  ret ptr %10
}

; Function Attrs: mustprogress nounwind uwtable
define linkonce_odr void @_ZN5Yosys7hashlib4poolINS_9DriverMap10DriveBitIdENS0_8hash_opsIS3_EEE8iteratorC2EPS6_i(ptr noundef nonnull align 8 dereferenceable(12) %0, ptr noundef %1, i32 noundef %2) unnamed_addr #7 comdat align 2 {
  %4 = alloca ptr, align 8
  %5 = alloca ptr, align 8
  %6 = alloca i32, align 4
  store ptr %0, ptr %4, align 8, !tbaa !192
  store ptr %1, ptr %5, align 8, !tbaa !181
  store i32 %2, ptr %6, align 4, !tbaa !23
  %7 = load ptr, ptr %4, align 8
  %8 = getelementptr inbounds nuw %"class.Yosys::hashlib::pool<Yosys::DriverMap::DriveBitId>::iterator", ptr %7, i32 0, i32 0
  %9 = load ptr, ptr %5, align 8, !tbaa !181
  store ptr %9, ptr %8, align 8, !tbaa !194
  %10 = getelementptr inbounds nuw %"class.Yosys::hashlib::pool<Yosys::DriverMap::DriveBitId>::iterator", ptr %7, i32 0, i32 1
  %11 = load i32, ptr %6, align 4, !tbaa !23
  store i32 %11, ptr %10, align 8, !tbaa !196
  ret void
}

; Function Attrs: mustprogress nounwind uwtable
define linkonce_odr noundef i64 @_ZNKSt6vectorIN5Yosys7hashlib4poolINS0_9DriverMap10DriveBitIdENS1_8hash_opsIS4_EEE7entry_tESaIS8_EE4sizeEv(ptr noundef nonnull align 8 dereferenceable(24) %0) #7 comdat align 2 {
  %2 = alloca ptr, align 8
  store ptr %0, ptr %2, align 8, !tbaa !838
  %3 = load ptr, ptr %2, align 8
  %4 = getelementptr inbounds nuw %"struct.std::_Vector_base.56", ptr %3, i32 0, i32 0
  %5 = getelementptr inbounds nuw %"struct.std::_Vector_base<Yosys::hashlib::pool<Yosys::DriverMap::DriveBitId>::entry_t, std::allocator<Yosys::hashlib::pool<Yosys::DriverMap::DriveBitId>::entry_t>>::_Vector_impl_data", ptr %4, i32 0, i32 1
  %6 = load ptr, ptr %5, align 8, !tbaa !841
  %7 = getelementptr inbounds nuw %"struct.std::_Vector_base.56", ptr %3, i32 0, i32 0
  %8 = getelementptr inbounds nuw %"struct.std::_Vector_base<Yosys::hashlib::pool<Yosys::DriverMap::DriveBitId>::entry_t, std::allocator<Yosys::hashlib::pool<Yosys::DriverMap::DriveBitId>::entry_t>>::_Vector_impl_data", ptr %7, i32 0, i32 0
  %9 = load ptr, ptr %8, align 8, !tbaa !840
  %10 = ptrtoint ptr %6 to i64
  %11 = ptrtoint ptr %9 to i64
  %12 = sub i64 %10, %11
  %13 = sdiv exact i64 %12, 8
  ret i64 %13
}

; Function Attrs: mustprogress nounwind uwtable
define linkonce_odr noundef nonnull align 4 dereferenceable(4) ptr @_ZN5Yosys7hashlib4poolINS_9DriverMap10DriveBitIdENS0_8hash_opsIS3_EEE8iteratordeEv(ptr noundef nonnull align 8 dereferenceable(12) %0) #7 comdat align 2 {
  %2 = alloca ptr, align 8
  store ptr %0, ptr %2, align 8, !tbaa !192
  %3 = load ptr, ptr %2, align 8
  %4 = getelementptr inbounds nuw %"class.Yosys::hashlib::pool<Yosys::DriverMap::DriveBitId>::iterator", ptr %3, i32 0, i32 0
  %5 = load ptr, ptr %4, align 8, !tbaa !194
  %6 = getelementptr inbounds nuw %"class.Yosys::hashlib::pool.54", ptr %5, i32 0, i32 1
  %7 = getelementptr inbounds nuw %"class.Yosys::hashlib::pool<Yosys::DriverMap::DriveBitId>::iterator", ptr %3, i32 0, i32 1
  %8 = load i32, ptr %7, align 8, !tbaa !196
  %9 = sext i32 %8 to i64
  %10 = call noundef nonnull align 4 dereferenceable(8) ptr @_ZNSt6vectorIN5Yosys7hashlib4poolINS0_9DriverMap10DriveBitIdENS1_8hash_opsIS4_EEE7entry_tESaIS8_EEixEm(ptr noundef nonnull align 8 dereferenceable(24) %6, i64 noundef %9) #3
  %11 = getelementptr inbounds nuw %"struct.Yosys::hashlib::pool<Yosys::DriverMap::DriveBitId>::entry_t", ptr %10, i32 0, i32 0
  ret ptr %11
}

; Function Attrs: mustprogress uwtable
define linkonce_odr { ptr, i32 } @_ZN5Yosys7hashlib4poolINS_9DriverMap10DriveBitIdENS0_8hash_opsIS3_EEE7elementEi(ptr noundef nonnull align 8 dereferenceable(49) %0, i32 noundef %1) #4 comdat align 2 {
  %3 = alloca %"class.Yosys::hashlib::pool<Yosys::DriverMap::DriveBitId>::iterator", align 8
  %4 = alloca ptr, align 8
  %5 = alloca i32, align 4
  store ptr %0, ptr %4, align 8, !tbaa !181
  store i32 %1, ptr %5, align 4, !tbaa !23
  %6 = load ptr, ptr %4, align 8
  %7 = getelementptr inbounds nuw %"class.Yosys::hashlib::pool.54", ptr %6, i32 0, i32 1
  %8 = call noundef i64 @_ZNKSt6vectorIN5Yosys7hashlib4poolINS0_9DriverMap10DriveBitIdENS1_8hash_opsIS4_EEE7entry_tESaIS8_EE4sizeEv(ptr noundef nonnull align 8 dereferenceable(24) %7) #3
  %9 = trunc i64 %8 to i32
  %10 = sub nsw i32 %9, 1
  %11 = load i32, ptr %5, align 4, !tbaa !23
  %12 = sub nsw i32 %10, %11
  call void @_ZN5Yosys7hashlib4poolINS_9DriverMap10DriveBitIdENS0_8hash_opsIS3_EEE8iteratorC2EPS6_i(ptr noundef nonnull align 8 dereferenceable(12) %3, ptr noundef %6, i32 noundef %12)
  %13 = load { ptr, i32 }, ptr %3, align 8
  ret { ptr, i32 } %13
}

; Function Attrs: mustprogress uwtable
define i32 @_ZN5Yosys9DriverMap13DriveBitGraph2atENS0_10DriveBitIdEi(ptr noundef nonnull align 8 dereferenceable(168) %0, i32 %1, i32 noundef %2) #4 align 2 {
  %4 = alloca %"struct.Yosys::DriverMap::DriveBitId", align 4
  %5 = alloca %"struct.Yosys::DriverMap::DriveBitId", align 4
  %6 = alloca ptr, align 8
  %7 = alloca i32, align 4
  %8 = alloca %"class.Yosys::hashlib::pool<Yosys::DriverMap::DriveBitId>::iterator", align 8
  %9 = alloca { ptr, i32 }, align 8
  %10 = getelementptr inbounds nuw %"struct.Yosys::DriverMap::DriveBitId", ptr %5, i32 0, i32 0
  store i32 %1, ptr %10, align 4
  store ptr %0, ptr %6, align 8, !tbaa !164
  store i32 %2, ptr %7, align 4, !tbaa !23
  %11 = load ptr, ptr %6, align 8
  %12 = load i32, ptr %7, align 4, !tbaa !23
  %13 = icmp eq i32 %12, 0
  br i1 %13, label %14, label %17

14:                                               ; preds = %3
  %15 = getelementptr inbounds nuw %"struct.Yosys::DriverMap::DriveBitGraph", ptr %11, i32 0, i32 0
  %16 = call noundef nonnull align 4 dereferenceable(4) ptr @_ZN5Yosys7hashlib4dictINS_9DriverMap10DriveBitIdES3_NS0_8hash_opsIS3_EEE2atERKS3_(ptr noundef nonnull align 8 dereferenceable(49) %15, ptr noundef nonnull align 4 dereferenceable(4) %5)
  call void @llvm.memcpy.p0.p0.i64(ptr align 4 %4, ptr align 4 %16, i64 4, i1 false), !tbaa.struct !183
  br label %30

17:                                               ; preds = %3
  %18 = load i32, ptr %7, align 4, !tbaa !23
  %19 = icmp eq i32 %18, 1
  br i1 %19, label %20, label %23

20:                                               ; preds = %17
  %21 = getelementptr inbounds nuw %"struct.Yosys::DriverMap::DriveBitGraph", ptr %11, i32 0, i32 1
  %22 = call noundef nonnull align 4 dereferenceable(4) ptr @_ZN5Yosys7hashlib4dictINS_9DriverMap10DriveBitIdES3_NS0_8hash_opsIS3_EEE2atERKS3_(ptr noundef nonnull align 8 dereferenceable(49) %21, ptr noundef nonnull align 4 dereferenceable(4) %5)
  call void @llvm.memcpy.p0.p0.i64(ptr align 4 %4, ptr align 4 %22, i64 4, i1 false), !tbaa.struct !183
  br label %30

23:                                               ; preds = %17
  call void @llvm.lifetime.start.p0(i64 16, ptr %8) #3
  %24 = getelementptr inbounds nuw %"struct.Yosys::DriverMap::DriveBitGraph", ptr %11, i32 0, i32 2
  %25 = call noundef nonnull align 8 dereferenceable(49) ptr @_ZN5Yosys7hashlib4dictINS_9DriverMap10DriveBitIdENS0_4poolIS3_NS0_8hash_opsIS3_EEEES6_E2atERKS3_(ptr noundef nonnull align 8 dereferenceable(49) %24, ptr noundef nonnull align 4 dereferenceable(4) %5)
  %26 = load i32, ptr %7, align 4, !tbaa !23
  %27 = sub nsw i32 %26, 2
  %28 = call { ptr, i32 } @_ZN5Yosys7hashlib4poolINS_9DriverMap10DriveBitIdENS0_8hash_opsIS3_EEE7elementEi(ptr noundef nonnull align 8 dereferenceable(49) %25, i32 noundef %27)
  store { ptr, i32 } %28, ptr %9, align 8
  call void @llvm.memcpy.p0.p0.i64(ptr align 8 %8, ptr align 8 %9, i64 12, i1 false)
  %29 = call noundef nonnull align 4 dereferenceable(4) ptr @_ZN5Yosys7hashlib4poolINS_9DriverMap10DriveBitIdENS0_8hash_opsIS3_EEE8iteratordeEv(ptr noundef nonnull align 8 dereferenceable(12) %8)
  call void @llvm.memcpy.p0.p0.i64(ptr align 4 %4, ptr align 4 %29, i64 4, i1 false), !tbaa.struct !183
  call void @llvm.lifetime.end.p0(i64 16, ptr %8) #3
  br label %30

30:                                               ; preds = %23, %20, %14
  %31 = getelementptr inbounds nuw %"struct.Yosys::DriverMap::DriveBitId", ptr %4, i32 0, i32 0
  %32 = load i32, ptr %31, align 4
  ret i32 %32
}