; Function Attrs: mustprogress uwtable
define i32 @_ZN5Yosys9DriverMap13DriveBitGraph2atENS0_10DriveBitIdEi(ptr noundef nonnull align 8 dereferenceable(168) %0, i32 %1, i32 noundef %2) local_unnamed_addr #5 align 2 {
  %4 = alloca %"struct.Yosys::DriverMap::DriveBitId", align 4
  store i32 %1, ptr %4, align 4
  switch i32 %2, label %10 [
    i32 0, label %5
    i32 1, label %7
  ]

5:                                                ; preds = %3
  %6 = call noundef nonnull align 4 dereferenceable(4) ptr @_ZN5Yosys7hashlib4dictINS_9DriverMap10DriveBitIdES3_NS0_8hash_opsIS3_EEE2atERKS3_(ptr noundef nonnull align 8 dereferenceable(49) %0, ptr noundef nonnull align 4 dereferenceable(4) %4)
  br label %25

7:                                                ; preds = %3
  %8 = getelementptr inbounds nuw i8, ptr %0, i64 56
  %9 = call noundef nonnull align 4 dereferenceable(4) ptr @_ZN5Yosys7hashlib4dictINS_9DriverMap10DriveBitIdES3_NS0_8hash_opsIS3_EEE2atERKS3_(ptr noundef nonnull align 8 dereferenceable(49) %8, ptr noundef nonnull align 4 dereferenceable(4) %4)
  br label %25

10:                                               ; preds = %3
  %11 = getelementptr inbounds nuw i8, ptr %0, i64 112
  %12 = call noundef nonnull align 8 dereferenceable(49) ptr @_ZN5Yosys7hashlib4dictINS_9DriverMap10DriveBitIdENS0_4poolIS3_NS0_8hash_opsIS3_EEEES6_E2atERKS3_(ptr noundef nonnull align 8 dereferenceable(49) %11, ptr noundef nonnull align 4 dereferenceable(4) %4)
  %13 = getelementptr inbounds nuw i8, ptr %12, i64 24
  %14 = getelementptr inbounds nuw i8, ptr %12, i64 32
  %15 = load ptr, ptr %14, align 8, !tbaa !182
  %16 = load ptr, ptr %13, align 8, !tbaa !180
  %17 = ptrtoint ptr %15 to i64
  %18 = ptrtoint ptr %16 to i64
  %19 = sub i64 %17, %18
  %20 = lshr exact i64 %19, 3
  %21 = trunc i64 %20 to i32
  %reass.sub6 = sub i32 %21, %2
  %22 = add i32 %reass.sub6, 1
  %23 = sext i32 %22 to i64
  %24 = getelementptr inbounds nuw %"struct.Yosys::hashlib::pool<Yosys::DriverMap::DriveBitId>::entry_t", ptr %16, i64 %23
  br label %25

25:                                               ; preds = %10, %7, %5
  %.sroa.03.0.in = phi ptr [ %6, %5 ], [ %9, %7 ], [ %24, %10 ]
  %.sroa.03.0 = load i32, ptr %.sroa.03.0.in, align 4, !tbaa !17
  ret i32 %.sroa.03.0
}